GAS LISTING /var/folders/46/ql4w1ss91p1__kn5sm1ndyt40000gn/T//ccbKKB9M.s 			page 1


   1              		.file	"handlers.c"
   2              		.option nopic
   3              		.attribute arch, "rv32i2p0_m2p0_a2p0_c2p0"
   4              		.attribute unaligned_access, 0
   5              		.attribute stack_align, 16
   6              		.text
   7              	.Ltext0:
   8              		.cfi_sections	.debug_frame
   9              		.section	.text.handle_nmi,"ax",@progbits
  10              		.align	1
  11              		.weak	handle_nmi
  13              	handle_nmi:
  14              	.LFB5:
  15              		.file 1 "../../firmware/RISCV/env_Eclipse/handlers.c"
   1:../../firmware/RISCV/env_Eclipse/handlers.c **** //See LICENSE for license details.
   2:../../firmware/RISCV/env_Eclipse/handlers.c **** #include <stdint.h>
   3:../../firmware/RISCV/env_Eclipse/handlers.c **** #include <stdio.h>
   4:../../firmware/RISCV/env_Eclipse/handlers.c **** #include <unistd.h>
   5:../../firmware/RISCV/env_Eclipse/handlers.c **** #include "riscv_encoding.h"
   6:../../firmware/RISCV/env_Eclipse/handlers.c **** #include "n200_func.h"
   7:../../firmware/RISCV/env_Eclipse/handlers.c **** 
   8:../../firmware/RISCV/env_Eclipse/handlers.c **** __attribute__((weak)) uintptr_t handle_nmi()
   9:../../firmware/RISCV/env_Eclipse/handlers.c **** {
  16              		.loc 1 9 1
  17              		.cfi_startproc
  10:../../firmware/RISCV/env_Eclipse/handlers.c ****   write(1, "nmi\n", 5);
  18              		.loc 1 10 3
  19 0000 B7050000 		lui	a1,%hi(.LC0)
   9:../../firmware/RISCV/env_Eclipse/handlers.c ****   write(1, "nmi\n", 5);
  20              		.loc 1 9 1 is_stmt 0
  21 0004 4111     		addi	sp,sp,-16
  22              	.LCFI0:
  23              		.cfi_def_cfa_offset 16
  24              		.loc 1 10 3
  25 0006 1546     		li	a2,5
  26 0008 93850500 		addi	a1,a1,%lo(.LC0)
  27 000c 0545     		li	a0,1
   9:../../firmware/RISCV/env_Eclipse/handlers.c ****   write(1, "nmi\n", 5);
  28              		.loc 1 9 1
  29 000e 06C6     		sw	ra,12(sp)
  30              		.cfi_offset 1, -4
  31              		.loc 1 10 3
  32 0010 97000000 		call	write
  32      E7800000 
  33              	.LVL0:
  11:../../firmware/RISCV/env_Eclipse/handlers.c ****   _exit(1);
  34              		.loc 1 11 3 is_stmt 1
  35 0018 0545     		li	a0,1
  36 001a 97000000 		call	_exit
  36      E7800000 
  37              	.LVL1:
  38              		.cfi_endproc
  39              	.LFE5:
  41              		.section	.text.handle_trap,"ax",@progbits
  42              		.align	1
  43              		.weak	handle_trap
  45              	handle_trap:
GAS LISTING /var/folders/46/ql4w1ss91p1__kn5sm1ndyt40000gn/T//ccbKKB9M.s 			page 2


  46              	.LFB6:
  12:../../firmware/RISCV/env_Eclipse/handlers.c ****   return 0;
  13:../../firmware/RISCV/env_Eclipse/handlers.c **** }
  14:../../firmware/RISCV/env_Eclipse/handlers.c **** 
  15:../../firmware/RISCV/env_Eclipse/handlers.c **** 
  16:../../firmware/RISCV/env_Eclipse/handlers.c **** __attribute__((weak)) uintptr_t handle_trap(uintptr_t mcause, uintptr_t sp)
  17:../../firmware/RISCV/env_Eclipse/handlers.c **** {
  47              		.loc 1 17 1
  48              		.cfi_startproc
  49              	.LVL2:
  18:../../firmware/RISCV/env_Eclipse/handlers.c ****   if((mcause & 0xFFF) == 0xFFF) {
  50              		.loc 1 18 3
  17:../../firmware/RISCV/env_Eclipse/handlers.c ****   if((mcause & 0xFFF) == 0xFFF) {
  51              		.loc 1 17 1 is_stmt 0
  52 0000 4111     		addi	sp,sp,-16
  53              	.LCFI1:
  54              		.cfi_def_cfa_offset 16
  55              		.loc 1 18 14
  56 0002 9347F5FF 		not	a5,a0
  17:../../firmware/RISCV/env_Eclipse/handlers.c ****   if((mcause & 0xFFF) == 0xFFF) {
  57              		.loc 1 17 1
  58 0006 22C4     		sw	s0,8(sp)
  59 0008 06C6     		sw	ra,12(sp)
  60              		.cfi_offset 8, -8
  61              		.cfi_offset 1, -4
  62              		.loc 1 18 5
  63 000a 13974701 		slli	a4,a5,20
  17:../../firmware/RISCV/env_Eclipse/handlers.c ****   if((mcause & 0xFFF) == 0xFFF) {
  64              		.loc 1 17 1
  65 000e 2A84     		mv	s0,a0
  66              		.loc 1 18 5
  67 0010 09E7     		bne	a4,zero,.L4
  19:../../firmware/RISCV/env_Eclipse/handlers.c ****       handle_nmi();
  68              		.loc 1 19 7 is_stmt 1
  69 0012 97000000 		call	handle_nmi
  69      E7800000 
  70              	.LVL3:
  71              	.L4:
  20:../../firmware/RISCV/env_Eclipse/handlers.c ****   }
  21:../../firmware/RISCV/env_Eclipse/handlers.c ****   write(1, "trap\n", 5);
  72              		.loc 1 21 3
  73 001a B7050000 		lui	a1,%hi(.LC1)
  74 001e 1546     		li	a2,5
  75 0020 93850500 		addi	a1,a1,%lo(.LC1)
  76 0024 0545     		li	a0,1
  77 0026 97000000 		call	write
  77      E7800000 
  78              	.LVL4:
  22:../../firmware/RISCV/env_Eclipse/handlers.c ****   //printf("In trap handler, the mcause is %d\n", mcause);
  23:../../firmware/RISCV/env_Eclipse/handlers.c ****   //printf("In trap handler, the mepc is 0x%x\n", read_csr(mepc));
  24:../../firmware/RISCV/env_Eclipse/handlers.c ****   //printf("In trap handler, the mtval is 0x%x\n", read_csr(mbadaddr));
  25:../../firmware/RISCV/env_Eclipse/handlers.c ****   _exit(mcause);
  79              		.loc 1 25 3
  80 002e 2285     		mv	a0,s0
  81 0030 97000000 		call	_exit
  81      E7800000 
  82              	.LVL5:
GAS LISTING /var/folders/46/ql4w1ss91p1__kn5sm1ndyt40000gn/T//ccbKKB9M.s 			page 3


  83              		.cfi_endproc
  84              	.LFE6:
  86              		.section	.rodata.handle_nmi.str1.4,"aMS",@progbits,1
  87              		.align	2
  88              	.LC0:
  89 0000 6E6D690A 		.string	"nmi\n"
  89      00
  90              		.section	.rodata.handle_trap.str1.4,"aMS",@progbits,1
  91              		.align	2
  92              	.LC1:
  93 0000 74726170 		.string	"trap\n"
  93      0A00
  94              		.text
  95              	.Letext0:
  96              		.file 2 "/Users/robin/KTH-programing/Mikrodata/toolchain-gd32v-v202-osx/compiler/riscv64-unknown-e
  97              		.file 3 "/Users/robin/KTH-programing/Mikrodata/toolchain-gd32v-v202-osx/compiler/riscv64-unknown-e
  98              		.file 4 "/Users/robin/KTH-programing/Mikrodata/toolchain-gd32v-v202-osx/compiler/lib/gcc/riscv64-u
  99              		.file 5 "/Users/robin/KTH-programing/Mikrodata/toolchain-gd32v-v202-osx/compiler/riscv64-unknown-e
 100              		.file 6 "/Users/robin/KTH-programing/Mikrodata/toolchain-gd32v-v202-osx/compiler/riscv64-unknown-e
 101              		.file 7 "/Users/robin/KTH-programing/Mikrodata/toolchain-gd32v-v202-osx/compiler/riscv64-unknown-e
 102              		.file 8 "/Users/robin/KTH-programing/Mikrodata/toolchain-gd32v-v202-osx/compiler/riscv64-unknown-e
GAS LISTING /var/folders/46/ql4w1ss91p1__kn5sm1ndyt40000gn/T//ccbKKB9M.s 			page 4


DEFINED SYMBOLS
                            *ABS*:0000000000000000 handlers.c
/var/folders/46/ql4w1ss91p1__kn5sm1ndyt40000gn/T//ccbKKB9M.s:13     .text.handle_nmi:0000000000000000 handle_nmi
/var/folders/46/ql4w1ss91p1__kn5sm1ndyt40000gn/T//ccbKKB9M.s:17     .text.handle_nmi:0000000000000000 .L0 
/var/folders/46/ql4w1ss91p1__kn5sm1ndyt40000gn/T//ccbKKB9M.s:18     .text.handle_nmi:0000000000000000 .L0 
/var/folders/46/ql4w1ss91p1__kn5sm1ndyt40000gn/T//ccbKKB9M.s:19     .text.handle_nmi:0000000000000000 .L0 
/var/folders/46/ql4w1ss91p1__kn5sm1ndyt40000gn/T//ccbKKB9M.s:21     .text.handle_nmi:0000000000000004 .L0 
/var/folders/46/ql4w1ss91p1__kn5sm1ndyt40000gn/T//ccbKKB9M.s:23     .text.handle_nmi:0000000000000006 .L0 
/var/folders/46/ql4w1ss91p1__kn5sm1ndyt40000gn/T//ccbKKB9M.s:25     .text.handle_nmi:0000000000000006 .L0 
/var/folders/46/ql4w1ss91p1__kn5sm1ndyt40000gn/T//ccbKKB9M.s:29     .text.handle_nmi:000000000000000e .L0 
/var/folders/46/ql4w1ss91p1__kn5sm1ndyt40000gn/T//ccbKKB9M.s:30     .text.handle_nmi:0000000000000010 .L0 
/var/folders/46/ql4w1ss91p1__kn5sm1ndyt40000gn/T//ccbKKB9M.s:32     .text.handle_nmi:0000000000000010 .L0 
/var/folders/46/ql4w1ss91p1__kn5sm1ndyt40000gn/T//ccbKKB9M.s:35     .text.handle_nmi:0000000000000018 .L0 
/var/folders/46/ql4w1ss91p1__kn5sm1ndyt40000gn/T//ccbKKB9M.s:38     .text.handle_nmi:0000000000000022 .L0 
/var/folders/46/ql4w1ss91p1__kn5sm1ndyt40000gn/T//ccbKKB9M.s:45     .text.handle_trap:0000000000000000 handle_trap
/var/folders/46/ql4w1ss91p1__kn5sm1ndyt40000gn/T//ccbKKB9M.s:48     .text.handle_trap:0000000000000000 .L0 
/var/folders/46/ql4w1ss91p1__kn5sm1ndyt40000gn/T//ccbKKB9M.s:50     .text.handle_trap:0000000000000000 .L0 
/var/folders/46/ql4w1ss91p1__kn5sm1ndyt40000gn/T//ccbKKB9M.s:51     .text.handle_trap:0000000000000000 .L0 
/var/folders/46/ql4w1ss91p1__kn5sm1ndyt40000gn/T//ccbKKB9M.s:52     .text.handle_trap:0000000000000000 .L0 
/var/folders/46/ql4w1ss91p1__kn5sm1ndyt40000gn/T//ccbKKB9M.s:54     .text.handle_trap:0000000000000002 .L0 
/var/folders/46/ql4w1ss91p1__kn5sm1ndyt40000gn/T//ccbKKB9M.s:56     .text.handle_trap:0000000000000002 .L0 
/var/folders/46/ql4w1ss91p1__kn5sm1ndyt40000gn/T//ccbKKB9M.s:58     .text.handle_trap:0000000000000006 .L0 
/var/folders/46/ql4w1ss91p1__kn5sm1ndyt40000gn/T//ccbKKB9M.s:60     .text.handle_trap:000000000000000a .L0 
/var/folders/46/ql4w1ss91p1__kn5sm1ndyt40000gn/T//ccbKKB9M.s:61     .text.handle_trap:000000000000000a .L0 
/var/folders/46/ql4w1ss91p1__kn5sm1ndyt40000gn/T//ccbKKB9M.s:63     .text.handle_trap:000000000000000a .L0 
/var/folders/46/ql4w1ss91p1__kn5sm1ndyt40000gn/T//ccbKKB9M.s:65     .text.handle_trap:000000000000000e .L0 
/var/folders/46/ql4w1ss91p1__kn5sm1ndyt40000gn/T//ccbKKB9M.s:67     .text.handle_trap:0000000000000010 .L0 
/var/folders/46/ql4w1ss91p1__kn5sm1ndyt40000gn/T//ccbKKB9M.s:69     .text.handle_trap:0000000000000012 .L0 
/var/folders/46/ql4w1ss91p1__kn5sm1ndyt40000gn/T//ccbKKB9M.s:73     .text.handle_trap:000000000000001a .L0 
/var/folders/46/ql4w1ss91p1__kn5sm1ndyt40000gn/T//ccbKKB9M.s:80     .text.handle_trap:000000000000002e .L0 
/var/folders/46/ql4w1ss91p1__kn5sm1ndyt40000gn/T//ccbKKB9M.s:83     .text.handle_trap:0000000000000038 .L0 
/var/folders/46/ql4w1ss91p1__kn5sm1ndyt40000gn/T//ccbKKB9M.s:41     .text.handle_nmi:0000000000000022 .L0 
/var/folders/46/ql4w1ss91p1__kn5sm1ndyt40000gn/T//ccbKKB9M.s:86     .text.handle_trap:0000000000000038 .L0 
                     .debug_frame:0000000000000000 .L0 
/var/folders/46/ql4w1ss91p1__kn5sm1ndyt40000gn/T//ccbKKB9M.s:88     .rodata.handle_nmi.str1.4:0000000000000000 .LC0
/var/folders/46/ql4w1ss91p1__kn5sm1ndyt40000gn/T//ccbKKB9M.s:92     .rodata.handle_trap.str1.4:0000000000000000 .LC1
/var/folders/46/ql4w1ss91p1__kn5sm1ndyt40000gn/T//ccbKKB9M.s:71     .text.handle_trap:000000000000001a .L4
/var/folders/46/ql4w1ss91p1__kn5sm1ndyt40000gn/T//ccbKKB9M.s:1676   .debug_abbrev:0000000000000000 .Ldebug_abbrev0
/var/folders/46/ql4w1ss91p1__kn5sm1ndyt40000gn/T//ccbKKB9M.s:2535   .debug_str:0000000000000498 .LASF131
/var/folders/46/ql4w1ss91p1__kn5sm1ndyt40000gn/T//ccbKKB9M.s:2381   .debug_str:00000000000001bc .LASF132
/var/folders/46/ql4w1ss91p1__kn5sm1ndyt40000gn/T//ccbKKB9M.s:2313   .debug_str:000000000000001c .LASF133
/var/folders/46/ql4w1ss91p1__kn5sm1ndyt40000gn/T//ccbKKB9M.s:2297   .debug_ranges:0000000000000000 .Ldebug_ranges0
/var/folders/46/ql4w1ss91p1__kn5sm1ndyt40000gn/T//ccbKKB9M.s:2305   .debug_line:0000000000000000 .Ldebug_line0
/var/folders/46/ql4w1ss91p1__kn5sm1ndyt40000gn/T//ccbKKB9M.s:2345   .debug_str:0000000000000118 .LASF0
/var/folders/46/ql4w1ss91p1__kn5sm1ndyt40000gn/T//ccbKKB9M.s:2467   .debug_str:0000000000000368 .LASF1
/var/folders/46/ql4w1ss91p1__kn5sm1ndyt40000gn/T//ccbKKB9M.s:2473   .debug_str:0000000000000384 .LASF2
/var/folders/46/ql4w1ss91p1__kn5sm1ndyt40000gn/T//ccbKKB9M.s:2417   .debug_str:000000000000027a .LASF3
/var/folders/46/ql4w1ss91p1__kn5sm1ndyt40000gn/T//ccbKKB9M.s:2361   .debug_str:000000000000015d .LASF4
/var/folders/46/ql4w1ss91p1__kn5sm1ndyt40000gn/T//ccbKKB9M.s:2409   .debug_str:0000000000000254 .LASF5
/var/folders/46/ql4w1ss91p1__kn5sm1ndyt40000gn/T//ccbKKB9M.s:2343   .debug_str:000000000000010a .LASF6
/var/folders/46/ql4w1ss91p1__kn5sm1ndyt40000gn/T//ccbKKB9M.s:2327   .debug_str:00000000000000ac .LASF7
/var/folders/46/ql4w1ss91p1__kn5sm1ndyt40000gn/T//ccbKKB9M.s:2487   .debug_str:00000000000003bf .LASF9
/var/folders/46/ql4w1ss91p1__kn5sm1ndyt40000gn/T//ccbKKB9M.s:2401   .debug_str:0000000000000230 .LASF8
/var/folders/46/ql4w1ss91p1__kn5sm1ndyt40000gn/T//ccbKKB9M.s:2311   .debug_str:0000000000000012 .LASF10
/var/folders/46/ql4w1ss91p1__kn5sm1ndyt40000gn/T//ccbKKB9M.s:2449   .debug_str:000000000000030f .LASF11
/var/folders/46/ql4w1ss91p1__kn5sm1ndyt40000gn/T//ccbKKB9M.s:2431   .debug_str:00000000000002c5 .LASF12
/var/folders/46/ql4w1ss91p1__kn5sm1ndyt40000gn/T//ccbKKB9M.s:2461   .debug_str:0000000000000345 .LASF13
GAS LISTING /var/folders/46/ql4w1ss91p1__kn5sm1ndyt40000gn/T//ccbKKB9M.s 			page 5


/var/folders/46/ql4w1ss91p1__kn5sm1ndyt40000gn/T//ccbKKB9M.s:2519   .debug_str:0000000000000457 .LASF14
/var/folders/46/ql4w1ss91p1__kn5sm1ndyt40000gn/T//ccbKKB9M.s:2555   .debug_str:0000000000000578 .LASF15
/var/folders/46/ql4w1ss91p1__kn5sm1ndyt40000gn/T//ccbKKB9M.s:2427   .debug_str:00000000000002b7 .LASF16
/var/folders/46/ql4w1ss91p1__kn5sm1ndyt40000gn/T//ccbKKB9M.s:2403   .debug_str:000000000000023d .LASF17
/var/folders/46/ql4w1ss91p1__kn5sm1ndyt40000gn/T//ccbKKB9M.s:2511   .debug_str:0000000000000435 .LASF18
/var/folders/46/ql4w1ss91p1__kn5sm1ndyt40000gn/T//ccbKKB9M.s:2513   .debug_str:000000000000043d .LASF19
/var/folders/46/ql4w1ss91p1__kn5sm1ndyt40000gn/T//ccbKKB9M.s:2483   .debug_str:00000000000003ac .LASF20
/var/folders/46/ql4w1ss91p1__kn5sm1ndyt40000gn/T//ccbKKB9M.s:2541   .debug_str:000000000000052e .LASF21
/var/folders/46/ql4w1ss91p1__kn5sm1ndyt40000gn/T//ccbKKB9M.s:2465   .debug_str:0000000000000356 .LASF22
/var/folders/46/ql4w1ss91p1__kn5sm1ndyt40000gn/T//ccbKKB9M.s:2387   .debug_str:00000000000001f3 .LASF23
/var/folders/46/ql4w1ss91p1__kn5sm1ndyt40000gn/T//ccbKKB9M.s:2391   .debug_str:0000000000000204 .LASF28
/var/folders/46/ql4w1ss91p1__kn5sm1ndyt40000gn/T//ccbKKB9M.s:2531   .debug_str:0000000000000485 .LASF24
/var/folders/46/ql4w1ss91p1__kn5sm1ndyt40000gn/T//ccbKKB9M.s:2503   .debug_str:0000000000000418 .LASF25
/var/folders/46/ql4w1ss91p1__kn5sm1ndyt40000gn/T//ccbKKB9M.s:2385   .debug_str:00000000000001ed .LASF26
/var/folders/46/ql4w1ss91p1__kn5sm1ndyt40000gn/T//ccbKKB9M.s:2549   .debug_str:0000000000000563 .LASF27
/var/folders/46/ql4w1ss91p1__kn5sm1ndyt40000gn/T//ccbKKB9M.s:2399   .debug_str:000000000000022b .LASF29
/var/folders/46/ql4w1ss91p1__kn5sm1ndyt40000gn/T//ccbKKB9M.s:2339   .debug_str:00000000000000fb .LASF30
/var/folders/46/ql4w1ss91p1__kn5sm1ndyt40000gn/T//ccbKKB9M.s:2525   .debug_str:000000000000046b .LASF31
/var/folders/46/ql4w1ss91p1__kn5sm1ndyt40000gn/T//ccbKKB9M.s:2351   .debug_str:0000000000000130 .LASF32
/var/folders/46/ql4w1ss91p1__kn5sm1ndyt40000gn/T//ccbKKB9M.s:2579   .debug_str:00000000000005e3 .LASF33
/var/folders/46/ql4w1ss91p1__kn5sm1ndyt40000gn/T//ccbKKB9M.s:2455   .debug_str:0000000000000329 .LASF34
/var/folders/46/ql4w1ss91p1__kn5sm1ndyt40000gn/T//ccbKKB9M.s:2443   .debug_str:00000000000002f5 .LASF35
/var/folders/46/ql4w1ss91p1__kn5sm1ndyt40000gn/T//ccbKKB9M.s:2551   .debug_str:0000000000000568 .LASF36
/var/folders/46/ql4w1ss91p1__kn5sm1ndyt40000gn/T//ccbKKB9M.s:2475   .debug_str:000000000000038e .LASF37
/var/folders/46/ql4w1ss91p1__kn5sm1ndyt40000gn/T//ccbKKB9M.s:2565   .debug_str:00000000000005a3 .LASF38
/var/folders/46/ql4w1ss91p1__kn5sm1ndyt40000gn/T//ccbKKB9M.s:2355   .debug_str:000000000000013f .LASF39
/var/folders/46/ql4w1ss91p1__kn5sm1ndyt40000gn/T//ccbKKB9M.s:2379   .debug_str:00000000000001b4 .LASF40
/var/folders/46/ql4w1ss91p1__kn5sm1ndyt40000gn/T//ccbKKB9M.s:2307   .debug_str:0000000000000000 .LASF41
/var/folders/46/ql4w1ss91p1__kn5sm1ndyt40000gn/T//ccbKKB9M.s:2537   .debug_str:0000000000000520 .LASF42
/var/folders/46/ql4w1ss91p1__kn5sm1ndyt40000gn/T//ccbKKB9M.s:2365   .debug_str:000000000000016d .LASF43
/var/folders/46/ql4w1ss91p1__kn5sm1ndyt40000gn/T//ccbKKB9M.s:2457   .debug_str:0000000000000332 .LASF44
/var/folders/46/ql4w1ss91p1__kn5sm1ndyt40000gn/T//ccbKKB9M.s:2495   .debug_str:00000000000003e8 .LASF45
/var/folders/46/ql4w1ss91p1__kn5sm1ndyt40000gn/T//ccbKKB9M.s:2383   .debug_str:00000000000001e8 .LASF46
/var/folders/46/ql4w1ss91p1__kn5sm1ndyt40000gn/T//ccbKKB9M.s:2477   .debug_str:0000000000000398 .LASF47
/var/folders/46/ql4w1ss91p1__kn5sm1ndyt40000gn/T//ccbKKB9M.s:2349   .debug_str:000000000000012a .LASF48
/var/folders/46/ql4w1ss91p1__kn5sm1ndyt40000gn/T//ccbKKB9M.s:2309   .debug_str:000000000000000c .LASF49
/var/folders/46/ql4w1ss91p1__kn5sm1ndyt40000gn/T//ccbKKB9M.s:2485   .debug_str:00000000000003b7 .LASF50
/var/folders/46/ql4w1ss91p1__kn5sm1ndyt40000gn/T//ccbKKB9M.s:2363   .debug_str:0000000000000166 .LASF51
/var/folders/46/ql4w1ss91p1__kn5sm1ndyt40000gn/T//ccbKKB9M.s:2411   .debug_str:0000000000000266 .LASF52
/var/folders/46/ql4w1ss91p1__kn5sm1ndyt40000gn/T//ccbKKB9M.s:2329   .debug_str:00000000000000c3 .LASF53
/var/folders/46/ql4w1ss91p1__kn5sm1ndyt40000gn/T//ccbKKB9M.s:2357   .debug_str:000000000000014d .LASF54
/var/folders/46/ql4w1ss91p1__kn5sm1ndyt40000gn/T//ccbKKB9M.s:2395   .debug_str:000000000000021b .LASF55
/var/folders/46/ql4w1ss91p1__kn5sm1ndyt40000gn/T//ccbKKB9M.s:2441   .debug_str:00000000000002ee .LASF56
/var/folders/46/ql4w1ss91p1__kn5sm1ndyt40000gn/T//ccbKKB9M.s:2515   .debug_str:0000000000000445 .LASF57
/var/folders/46/ql4w1ss91p1__kn5sm1ndyt40000gn/T//ccbKKB9M.s:2569   .debug_str:00000000000005bd .LASF58
/var/folders/46/ql4w1ss91p1__kn5sm1ndyt40000gn/T//ccbKKB9M.s:2347   .debug_str:0000000000000124 .LASF59
/var/folders/46/ql4w1ss91p1__kn5sm1ndyt40000gn/T//ccbKKB9M.s:2561   .debug_str:0000000000000595 .LASF60
/var/folders/46/ql4w1ss91p1__kn5sm1ndyt40000gn/T//ccbKKB9M.s:2369   .debug_str:000000000000017c .LASF61
/var/folders/46/ql4w1ss91p1__kn5sm1ndyt40000gn/T//ccbKKB9M.s:2373   .debug_str:000000000000018d .LASF62
/var/folders/46/ql4w1ss91p1__kn5sm1ndyt40000gn/T//ccbKKB9M.s:2321   .debug_str:0000000000000086 .LASF63
/var/folders/46/ql4w1ss91p1__kn5sm1ndyt40000gn/T//ccbKKB9M.s:2435   .debug_str:00000000000002d7 .LASF64
/var/folders/46/ql4w1ss91p1__kn5sm1ndyt40000gn/T//ccbKKB9M.s:2317   .debug_str:0000000000000071 .LASF65
/var/folders/46/ql4w1ss91p1__kn5sm1ndyt40000gn/T//ccbKKB9M.s:2437   .debug_str:00000000000002dd .LASF66
/var/folders/46/ql4w1ss91p1__kn5sm1ndyt40000gn/T//ccbKKB9M.s:2505   .debug_str:0000000000000420 .LASF67
/var/folders/46/ql4w1ss91p1__kn5sm1ndyt40000gn/T//ccbKKB9M.s:2521   .debug_str:000000000000045f .LASF68
/var/folders/46/ql4w1ss91p1__kn5sm1ndyt40000gn/T//ccbKKB9M.s:2367   .debug_str:0000000000000175 .LASF69
/var/folders/46/ql4w1ss91p1__kn5sm1ndyt40000gn/T//ccbKKB9M.s:2405   .debug_str:0000000000000244 .LASF70
GAS LISTING /var/folders/46/ql4w1ss91p1__kn5sm1ndyt40000gn/T//ccbKKB9M.s 			page 6


/var/folders/46/ql4w1ss91p1__kn5sm1ndyt40000gn/T//ccbKKB9M.s:2389   .debug_str:00000000000001fc .LASF71
/var/folders/46/ql4w1ss91p1__kn5sm1ndyt40000gn/T//ccbKKB9M.s:2493   .debug_str:00000000000003e3 .LASF72
/var/folders/46/ql4w1ss91p1__kn5sm1ndyt40000gn/T//ccbKKB9M.s:2527   .debug_str:0000000000000474 .LASF73
/var/folders/46/ql4w1ss91p1__kn5sm1ndyt40000gn/T//ccbKKB9M.s:2501   .debug_str:00000000000003ff .LASF74
/var/folders/46/ql4w1ss91p1__kn5sm1ndyt40000gn/T//ccbKKB9M.s:2497   .debug_str:00000000000003ed .LASF75
/var/folders/46/ql4w1ss91p1__kn5sm1ndyt40000gn/T//ccbKKB9M.s:2459   .debug_str:000000000000033a .LASF76
/var/folders/46/ql4w1ss91p1__kn5sm1ndyt40000gn/T//ccbKKB9M.s:2499   .debug_str:00000000000003f5 .LASF77
/var/folders/46/ql4w1ss91p1__kn5sm1ndyt40000gn/T//ccbKKB9M.s:2425   .debug_str:00000000000002af .LASF78
/var/folders/46/ql4w1ss91p1__kn5sm1ndyt40000gn/T//ccbKKB9M.s:2397   .debug_str:0000000000000221 .LASF79
/var/folders/46/ql4w1ss91p1__kn5sm1ndyt40000gn/T//ccbKKB9M.s:2577   .debug_str:00000000000005de .LASF80
/var/folders/46/ql4w1ss91p1__kn5sm1ndyt40000gn/T//ccbKKB9M.s:2463   .debug_str:000000000000034c .LASF81
/var/folders/46/ql4w1ss91p1__kn5sm1ndyt40000gn/T//ccbKKB9M.s:2407   .debug_str:000000000000024c .LASF82
/var/folders/46/ql4w1ss91p1__kn5sm1ndyt40000gn/T//ccbKKB9M.s:2371   .debug_str:0000000000000185 .LASF83
/var/folders/46/ql4w1ss91p1__kn5sm1ndyt40000gn/T//ccbKKB9M.s:2469   .debug_str:0000000000000376 .LASF84
/var/folders/46/ql4w1ss91p1__kn5sm1ndyt40000gn/T//ccbKKB9M.s:2419   .debug_str:000000000000028d .LASF85
/var/folders/46/ql4w1ss91p1__kn5sm1ndyt40000gn/T//ccbKKB9M.s:2559   .debug_str:000000000000058b .LASF86
/var/folders/46/ql4w1ss91p1__kn5sm1ndyt40000gn/T//ccbKKB9M.s:2359   .debug_str:0000000000000155 .LASF87
/var/folders/46/ql4w1ss91p1__kn5sm1ndyt40000gn/T//ccbKKB9M.s:2353   .debug_str:000000000000013a .LASF88
/var/folders/46/ql4w1ss91p1__kn5sm1ndyt40000gn/T//ccbKKB9M.s:2523   .debug_str:0000000000000466 .LASF89
/var/folders/46/ql4w1ss91p1__kn5sm1ndyt40000gn/T//ccbKKB9M.s:2481   .debug_str:00000000000003a5 .LASF90
/var/folders/46/ql4w1ss91p1__kn5sm1ndyt40000gn/T//ccbKKB9M.s:2553   .debug_str:0000000000000572 .LASF91
/var/folders/46/ql4w1ss91p1__kn5sm1ndyt40000gn/T//ccbKKB9M.s:2413   .debug_str:000000000000026c .LASF92
/var/folders/46/ql4w1ss91p1__kn5sm1ndyt40000gn/T//ccbKKB9M.s:2479   .debug_str:000000000000039f .LASF93
/var/folders/46/ql4w1ss91p1__kn5sm1ndyt40000gn/T//ccbKKB9M.s:2507   .debug_str:0000000000000427 .LASF94
/var/folders/46/ql4w1ss91p1__kn5sm1ndyt40000gn/T//ccbKKB9M.s:2509   .debug_str:000000000000042f .LASF95
/var/folders/46/ql4w1ss91p1__kn5sm1ndyt40000gn/T//ccbKKB9M.s:2529   .debug_str:000000000000047f .LASF96
/var/folders/46/ql4w1ss91p1__kn5sm1ndyt40000gn/T//ccbKKB9M.s:2539   .debug_str:0000000000000529 .LASF97
/var/folders/46/ql4w1ss91p1__kn5sm1ndyt40000gn/T//ccbKKB9M.s:2547   .debug_str:0000000000000556 .LASF98
/var/folders/46/ql4w1ss91p1__kn5sm1ndyt40000gn/T//ccbKKB9M.s:2533   .debug_str:000000000000048b .LASF99
/var/folders/46/ql4w1ss91p1__kn5sm1ndyt40000gn/T//ccbKKB9M.s:2423   .debug_str:00000000000002a2 .LASF100
/var/folders/46/ql4w1ss91p1__kn5sm1ndyt40000gn/T//ccbKKB9M.s:2567   .debug_str:00000000000005ae .LASF101
/var/folders/46/ql4w1ss91p1__kn5sm1ndyt40000gn/T//ccbKKB9M.s:2393   .debug_str:000000000000020c .LASF102
/var/folders/46/ql4w1ss91p1__kn5sm1ndyt40000gn/T//ccbKKB9M.s:2489   .debug_str:00000000000003cb .LASF103
/var/folders/46/ql4w1ss91p1__kn5sm1ndyt40000gn/T//ccbKKB9M.s:2571   .debug_str:00000000000005c4 .LASF104
/var/folders/46/ql4w1ss91p1__kn5sm1ndyt40000gn/T//ccbKKB9M.s:2491   .debug_str:00000000000003d6 .LASF105
/var/folders/46/ql4w1ss91p1__kn5sm1ndyt40000gn/T//ccbKKB9M.s:2575   .debug_str:00000000000005d0 .LASF106
/var/folders/46/ql4w1ss91p1__kn5sm1ndyt40000gn/T//ccbKKB9M.s:2337   .debug_str:00000000000000ed .LASF107
/var/folders/46/ql4w1ss91p1__kn5sm1ndyt40000gn/T//ccbKKB9M.s:2557   .debug_str:0000000000000581 .LASF108
/var/folders/46/ql4w1ss91p1__kn5sm1ndyt40000gn/T//ccbKKB9M.s:2421   .debug_str:0000000000000296 .LASF109
/var/folders/46/ql4w1ss91p1__kn5sm1ndyt40000gn/T//ccbKKB9M.s:2543   .debug_str:0000000000000536 .LASF110
/var/folders/46/ql4w1ss91p1__kn5sm1ndyt40000gn/T//ccbKKB9M.s:2377   .debug_str:00000000000001a6 .LASF111
/var/folders/46/ql4w1ss91p1__kn5sm1ndyt40000gn/T//ccbKKB9M.s:2333   .debug_str:00000000000000d7 .LASF112
/var/folders/46/ql4w1ss91p1__kn5sm1ndyt40000gn/T//ccbKKB9M.s:2375   .debug_str:0000000000000195 .LASF113
/var/folders/46/ql4w1ss91p1__kn5sm1ndyt40000gn/T//ccbKKB9M.s:2323   .debug_str:000000000000008c .LASF114
/var/folders/46/ql4w1ss91p1__kn5sm1ndyt40000gn/T//ccbKKB9M.s:2325   .debug_str:000000000000009b .LASF115
/var/folders/46/ql4w1ss91p1__kn5sm1ndyt40000gn/T//ccbKKB9M.s:2471   .debug_str:000000000000037b .LASF116
/var/folders/46/ql4w1ss91p1__kn5sm1ndyt40000gn/T//ccbKKB9M.s:2453   .debug_str:0000000000000322 .LASF117
/var/folders/46/ql4w1ss91p1__kn5sm1ndyt40000gn/T//ccbKKB9M.s:2445   .debug_str:00000000000002ff .LASF118
/var/folders/46/ql4w1ss91p1__kn5sm1ndyt40000gn/T//ccbKKB9M.s:2563   .debug_str:000000000000059b .LASF119
/var/folders/46/ql4w1ss91p1__kn5sm1ndyt40000gn/T//ccbKKB9M.s:2331   .debug_str:00000000000000cc .LASF134
/var/folders/46/ql4w1ss91p1__kn5sm1ndyt40000gn/T//ccbKKB9M.s:2517   .debug_str:000000000000044b .LASF120
/var/folders/46/ql4w1ss91p1__kn5sm1ndyt40000gn/T//ccbKKB9M.s:2545   .debug_str:0000000000000543 .LASF121
/var/folders/46/ql4w1ss91p1__kn5sm1ndyt40000gn/T//ccbKKB9M.s:2429   .debug_str:00000000000002bd .LASF122
/var/folders/46/ql4w1ss91p1__kn5sm1ndyt40000gn/T//ccbKKB9M.s:2447   .debug_str:0000000000000308 .LASF123
/var/folders/46/ql4w1ss91p1__kn5sm1ndyt40000gn/T//ccbKKB9M.s:2451   .debug_str:000000000000031b .LASF124
/var/folders/46/ql4w1ss91p1__kn5sm1ndyt40000gn/T//ccbKKB9M.s:2335   .debug_str:00000000000000e6 .LASF125
/var/folders/46/ql4w1ss91p1__kn5sm1ndyt40000gn/T//ccbKKB9M.s:2573   .debug_str:00000000000005c9 .LASF126
GAS LISTING /var/folders/46/ql4w1ss91p1__kn5sm1ndyt40000gn/T//ccbKKB9M.s 			page 7


/var/folders/46/ql4w1ss91p1__kn5sm1ndyt40000gn/T//ccbKKB9M.s:2439   .debug_str:00000000000002e5 .LASF127
/var/folders/46/ql4w1ss91p1__kn5sm1ndyt40000gn/T//ccbKKB9M.s:2319   .debug_str:000000000000007a .LASF135
/var/folders/46/ql4w1ss91p1__kn5sm1ndyt40000gn/T//ccbKKB9M.s:46     .text.handle_trap:0000000000000000 .LFB6
/var/folders/46/ql4w1ss91p1__kn5sm1ndyt40000gn/T//ccbKKB9M.s:84     .text.handle_trap:0000000000000038 .LFE6
/var/folders/46/ql4w1ss91p1__kn5sm1ndyt40000gn/T//ccbKKB9M.s:2231   .debug_loc:0000000000000000 .LLST1
/var/folders/46/ql4w1ss91p1__kn5sm1ndyt40000gn/T//ccbKKB9M.s:2415   .debug_str:0000000000000273 .LASF128
/var/folders/46/ql4w1ss91p1__kn5sm1ndyt40000gn/T//ccbKKB9M.s:2244   .debug_loc:0000000000000020 .LLST2
/var/folders/46/ql4w1ss91p1__kn5sm1ndyt40000gn/T//ccbKKB9M.s:2255   .debug_loc:000000000000003e .LLST3
/var/folders/46/ql4w1ss91p1__kn5sm1ndyt40000gn/T//ccbKKB9M.s:70     .text.handle_trap:000000000000001a .LVL3
/var/folders/46/ql4w1ss91p1__kn5sm1ndyt40000gn/T//ccbKKB9M.s:78     .text.handle_trap:000000000000002e .LVL4
/var/folders/46/ql4w1ss91p1__kn5sm1ndyt40000gn/T//ccbKKB9M.s:82     .text.handle_trap:0000000000000038 .LVL5
/var/folders/46/ql4w1ss91p1__kn5sm1ndyt40000gn/T//ccbKKB9M.s:2433   .debug_str:00000000000002cc .LASF136
/var/folders/46/ql4w1ss91p1__kn5sm1ndyt40000gn/T//ccbKKB9M.s:14     .text.handle_nmi:0000000000000000 .LFB5
/var/folders/46/ql4w1ss91p1__kn5sm1ndyt40000gn/T//ccbKKB9M.s:39     .text.handle_nmi:0000000000000022 .LFE5
/var/folders/46/ql4w1ss91p1__kn5sm1ndyt40000gn/T//ccbKKB9M.s:2269   .debug_loc:000000000000005f .LLST0
/var/folders/46/ql4w1ss91p1__kn5sm1ndyt40000gn/T//ccbKKB9M.s:33     .text.handle_nmi:0000000000000018 .LVL0
/var/folders/46/ql4w1ss91p1__kn5sm1ndyt40000gn/T//ccbKKB9M.s:37     .text.handle_nmi:0000000000000022 .LVL1
/var/folders/46/ql4w1ss91p1__kn5sm1ndyt40000gn/T//ccbKKB9M.s:2315   .debug_str:000000000000006b .LASF129
/var/folders/46/ql4w1ss91p1__kn5sm1ndyt40000gn/T//ccbKKB9M.s:2341   .debug_str:0000000000000104 .LASF130
/var/folders/46/ql4w1ss91p1__kn5sm1ndyt40000gn/T//ccbKKB9M.s:53     .text.handle_trap:0000000000000002 .LCFI1
/var/folders/46/ql4w1ss91p1__kn5sm1ndyt40000gn/T//ccbKKB9M.s:49     .text.handle_trap:0000000000000000 .LVL2
/var/folders/46/ql4w1ss91p1__kn5sm1ndyt40000gn/T//ccbKKB9M.s:22     .text.handle_nmi:0000000000000006 .LCFI0
/var/folders/46/ql4w1ss91p1__kn5sm1ndyt40000gn/T//ccbKKB9M.s:104    .debug_info:0000000000000000 .Ldebug_info0

UNDEFINED SYMBOLS
write
_exit
